Certificate:
    Data:
        Version: 3 (0x2)
        Serial Number: 1 (0x1)
    Signature Algorithm: sha256WithRSAEncryption
        Issuer: C=US, ST=Unset, L=Unset, O=Unset, CN=www.example.com
        Validity
            Not Before: Dec 15 20:58:54 2016 GMT
            Not After : Dec 13 20:58:54 2026 GMT
        Subject: C=US, ST=Unset, O=Unset, CN=www.example.com
        Subject Public Key Info:
            Public Key Algorithm: rsaEncryption
                Public-Key: (2048 bit)
                Modulus:
                    00:d0:14:03:f0:3d:5a:60:70:07:85:ac:16:f4:2c:
                    25:15:22:7d:be:4a:79:50:a2:82:0a:87:36:ce:10:
                    4c:5b:e5:1d:f7:9f:7e:0b:08:1a:36:bc:04:90:63:
                    ef:4a:4d:5d:8c:ba:e4:fc:ae:a3:4e:0b:c4:dc:ed:
                    a7:d8:c2:1a:2d:95:20:bf:bf:43:62:bf:18:71:37:
                    14:e8:87:a2:db:bc:6c:f9:0a:e6:b3:51:d1:fc:a1:
                    00:2c:b0:08:54:41:ce:bf:de:bb:8b:85:87:36:76:
                    20:3d:79:3a:5f:22:27:e1:a2:73:aa:d0:ed:c1:17:
                    8a:40:b5:97:4a:59:0b:8e:63:3e:b9:88:23:70:5d:
                    d9:6b:a2:54:f7:e2:fe:41:85:14:e4:b1:bf:6d:5e:
                    b1:fa:c0:c6:e2:49:5c:61:f6:53:aa:ba:17:15:1e:
                    20:c3:4d:0d:b8:d3:3a:49:10:2c:b4:3a:58:40:4f:
                    1d:2f:77:c7:e0:56:e1:f5:d8:a9:39:3f:68:25:5b:
                    f5:ff:cf:40:00:e0:8c:74:86:6c:47:dd:96:73:0a:
                    9c:a3:31:a7:05:9e:bd:aa:5d:ce:7c:1a:08:c0:5d:
                    35:73:f6:4f:14:5b:d5:24:f6:c6:e2:ae:ae:a3:7f:
                    67:8c:58:8c:1b:2d:a1:36:28:a9:a0:43:a9:65:53:
                    14:9f
                Exponent: 65537 (0x10001)
        X509v3 extensions:
            X509v3 Basic Constraints: 
                CA:FALSE
            X509v3 Subject Key Identifier: 
                B3:59:A3:89:1A:B0:08:B8:D9:FD:F6:7F:4F:38:81:87:39:36:C5:93
            X509v3 Authority Key Identifier: 
                keyid:AB:DD:DA:C4:95:56:4B:2B:37:75:21:CC:B0:6D:51:FE:D2:65:33:B8

    Signature Algorithm: sha256WithRSAEncryption
         89:27:e0:e4:c7:04:1f:27:3a:64:c6:13:7e:89:73:8c:e5:42:
         19:24:aa:39:b9:78:ea:84:ef:3e:fa:7c:94:10:53:7d:5f:0f:
         99:22:d3:09:3a:24:ec:70:47:c4:66:94:52:a2:11:27:4c:35:
         d2:53:e9:01:8a:36:83:a3:1d:db:27:86:42:d9:21:83:db:4e:
         d4:47:32:ee:c2:ec:e3:cd:23:4b:ed:87:ec:e7:77:43:f6:59:
         36:30:3e:63:f9:58:bc:83:58:72:6a:ca:8c:c1:7b:ec:db:b9:
         16:ff:ca:2e:55:26:0c:94:7f:67:a5:e5:69:c3:b7:ee:6a:ba:
         4c:7f:fb:c4:01:db:b9:95:9b:16:f3:9c:1f:8a:c9:e1:7b:26:
         b5:a1:85:cf:12:b4:48:8c:2b:a7:2d:0a:a7:a2:43:60:e1:5c:
         ed:06:9b:aa:1e:e8:9b:e4:41:64:fe:2b:e4:33:c9:d6:fe:eb:
         9b:2a:8d:6c:17:2d:b1:c7:cf:c9:8c:e7:e1:f2:ff:a2:be:d1:
         3c:71:9a:e5:9d:f2:75:d7:69:64:29:31:ac:de:0a:1d:51:96:
         1f:47:03:1e:b0:66:3f:21:af:0c:d5:ca:78:f8:ad:ab:7b:a8:
         b9:d2:ab:ff:ef:bf:92:31:73:69:72:25:a1:c6:1f:c2:d6:b9:
         60:08:1b:bd
-----BEGIN CERTIFICATE-----
MIIDZjCCAk6gAwIBAgIBATANBgkqhkiG9w0BAQsFADBXMQswCQYDVQQGEwJVUzEO
MAwGA1UECAwFVW5zZXQxDjAMBgNVBAcMBVVuc2V0MQ4wDAYDVQQKDAVVbnNldDEY
MBYGA1UEAwwPd3d3LmV4YW1wbGUuY29tMB4XDTE2MTIxNTIwNTg1NFoXDTI2MTIx
MzIwNTg1NFowRzELMAkGA1UEBhMCVVMxDjAMBgNVBAgMBVVuc2V0MQ4wDAYDVQQK
DAVVbnNldDEYMBYGA1UEAwwPd3d3LmV4YW1wbGUuY29tMIIBIjANBgkqhkiG9w0B
AQEFAAOCAQ8AMIIBCgKCAQEA0BQD8D1aYHAHhawW9CwlFSJ9vkp5UKKCCoc2zhBM
W+Ud959+CwgaNrwEkGPvSk1djLrk/K6jTgvE3O2n2MIaLZUgv79DYr8YcTcU6Iei
27xs+Qrms1HR/KEALLAIVEHOv967i4WHNnYgPXk6XyIn4aJzqtDtwReKQLWXSlkL
jmM+uYgjcF3Za6JU9+L+QYUU5LG/bV6x+sDG4klcYfZTqroXFR4gw00NuNM6SRAs
tDpYQE8dL3fH4Fbh9dipOT9oJVv1/89AAOCMdIZsR92WcwqcozGnBZ69ql3OfBoI
wF01c/ZPFFvVJPbG4q6uo39njFiMGy2hNiipoEOpZVMUnwIDAQABo00wSzAJBgNV
HRMEAjAAMB0GA1UdDgQWBBSzWaOJGrAIuNn99n9POIGHOTbFkzAfBgNVHSMEGDAW
gBSr3drElVZLKzd1IcywbVH+0mUzuDANBgkqhkiG9w0BAQsFAAOCAQEAiSfg5McE
Hyc6ZMYTfolzjOVCGSSqObl46oTvPvp8lBBTfV8PmSLTCTok7HBHxGaUUqIRJ0w1
0lPpAYo2g6Md2yeGQtkhg9tO1Ecy7sLs480jS+2H7Od3Q/ZZNjA+Y/lYvINYcmrK
jMF77Nu5Fv/KLlUmDJR/Z6XlacO37mq6TH/7xAHbuZWbFvOcH4rJ4XsmtaGFzxK0
SIwrpy0Kp6JDYOFc7Qabqh7om+RBZP4r5DPJ1v7rmyqNbBctscfPyYzn4fL/or7R
PHGa5Z3ydddpZCkxrN4KHVGWH0cDHrBmPyGvDNXKePitq3uoudKr/++/kjFzaXIl
ocYfwta5YAgbvQ==
-----END CERTIFICATE-----
